target datalayout = "e-m:e-p270:32:32-p271:32:32-p272:64:64-i64:64-i128:128-f80:128-n8:16:32:64-S128"
target triple = "x86_64-pc-linux-gnu"

%"class.OpenColorIO_v2_5dev::OpCPU" = type { ptr }
%"class.OpenColorIO_v2_5dev::Renderer_ACES_Glow03_Fwd" = type { %"class.OpenColorIO_v2_5dev::OpCPU", float, float }

; Function Attrs: inlinehint mustprogress nounwind uwtable
define linkonce_odr noundef nonnull align 4 dereferenceable(4) ptr @_ZSt3maxIfERKT_S2_S2_(ptr noundef nonnull align 4 dereferenceable(4) %0, ptr noundef nonnull align 4 dereferenceable(4) %1) #10 comdat {
  %3 = alloca ptr, align 8
  %4 = alloca ptr, align 8
  %5 = alloca ptr, align 8
  store ptr %0, ptr %4, align 8, !tbaa !29
  store ptr %1, ptr %5, align 8, !tbaa !29
  %6 = load ptr, ptr %4, align 8, !tbaa !29
  %7 = load float, ptr %6, align 4, !tbaa !31
  %8 = load ptr, ptr %5, align 8, !tbaa !29
  %9 = load float, ptr %8, align 4, !tbaa !31
  %10 = fcmp olt float %7, %9
  br i1 %10, label %11, label %13

11:                                               ; preds = %2
  %12 = load ptr, ptr %5, align 8, !tbaa !29
  store ptr %12, ptr %3, align 8
  br label %15

13:                                               ; preds = %2
  %14 = load ptr, ptr %4, align 8, !tbaa !29
  store ptr %14, ptr %3, align 8
  br label %15

15:                                               ; preds = %13, %11
  %16 = load ptr, ptr %3, align 8
  ret ptr %16
}

; Function Attrs: inlinehint mustprogress nounwind uwtable
define linkonce_odr noundef nonnull align 4 dereferenceable(4) ptr @_ZSt3minIfERKT_S2_S2_(ptr noundef nonnull align 4 dereferenceable(4) %0, ptr noundef nonnull align 4 dereferenceable(4) %1) #10 comdat {
  %3 = alloca ptr, align 8
  %4 = alloca ptr, align 8
  %5 = alloca ptr, align 8
  store ptr %0, ptr %4, align 8, !tbaa !29
  store ptr %1, ptr %5, align 8, !tbaa !29
  %6 = load ptr, ptr %5, align 8, !tbaa !29
  %7 = load float, ptr %6, align 4, !tbaa !31
  %8 = load ptr, ptr %4, align 8, !tbaa !29
  %9 = load float, ptr %8, align 4, !tbaa !31
  %10 = fcmp olt float %7, %9
  br i1 %10, label %11, label %13

11:                                               ; preds = %2
  %12 = load ptr, ptr %5, align 8, !tbaa !29
  store ptr %12, ptr %3, align 8
  br label %15

13:                                               ; preds = %2
  %14 = load ptr, ptr %4, align 8, !tbaa !29
  store ptr %14, ptr %3, align 8
  br label %15

15:                                               ; preds = %13, %11
  %16 = load ptr, ptr %3, align 8
  ret ptr %16
}

; Function Attrs: inlinehint mustprogress nounwind uwtable
define linkonce_odr noundef float @_ZSt4sqrtf(float noundef %0) #10 comdat {
  %2 = alloca float, align 4
  store float %0, ptr %2, align 4, !tbaa !31
  %3 = load float, ptr %2, align 4, !tbaa !31
  %4 = call float @sqrtf(float noundef %3) #3, !tbaa !34
  ret float %4
}

; Function Attrs: inlinehint mustprogress nounwind uwtable
define linkonce_odr hidden noundef float @_ZN19OpenColorIO_v2_5dev13SigmoidShaperEf(float noundef %0) #10 comdat {
  %2 = alloca float, align 4
  %3 = alloca float, align 4
  %4 = alloca float, align 4
  %5 = alloca float, align 4
  %6 = alloca float, align 4
  %7 = alloca float, align 4
  %8 = alloca float, align 4
  store float %0, ptr %2, align 4, !tbaa !31
  call void @llvm.lifetime.start.p0(i64 4, ptr %3) #3
  %9 = load float, ptr %2, align 4, !tbaa !31
  %10 = fsub float %9, 0x3FD99999A0000000
  %11 = fmul float %10, 5.000000e+00
  store float %11, ptr %3, align 4, !tbaa !31
  call void @llvm.lifetime.start.p0(i64 4, ptr %4) #3
  %12 = load float, ptr %3, align 4, !tbaa !31
  %13 = call float @llvm.copysign.f32(float 1.000000e+00, float %12)
  store float %13, ptr %4, align 4, !tbaa !31
  call void @llvm.lifetime.start.p0(i64 4, ptr %5) #3
  call void @llvm.lifetime.start.p0(i64 4, ptr %6) #3
  store float 0.000000e+00, ptr %6, align 4, !tbaa !31
  call void @llvm.lifetime.start.p0(i64 4, ptr %7) #3
  %14 = load float, ptr %4, align 4, !tbaa !31
  %15 = fmul float 5.000000e-01, %14
  %16 = load float, ptr %3, align 4, !tbaa !31
  %17 = fneg float %15
  %18 = call float @llvm.fmuladd.f32(float %17, float %16, float 1.000000e+00)
  store float %18, ptr %7, align 4, !tbaa !31
  %19 = call noundef nonnull align 4 dereferenceable(4) ptr @_ZSt3maxIfERKT_S2_S2_(ptr noundef nonnull align 4 dereferenceable(4) %6, ptr noundef nonnull align 4 dereferenceable(4) %7)
  %20 = load float, ptr %19, align 4, !tbaa !31
  call void @llvm.lifetime.end.p0(i64 4, ptr %7) #3
  call void @llvm.lifetime.end.p0(i64 4, ptr %6) #3
  store float %20, ptr %5, align 4, !tbaa !31
  call void @llvm.lifetime.start.p0(i64 4, ptr %8) #3
  %21 = load float, ptr %4, align 4, !tbaa !31
  %22 = load float, ptr %5, align 4, !tbaa !31
  %23 = load float, ptr %5, align 4, !tbaa !31
  %24 = fneg float %22
  %25 = call float @llvm.fmuladd.f32(float %24, float %23, float 1.000000e+00)
  %26 = call float @llvm.fmuladd.f32(float %21, float %25, float 1.000000e+00)
  %27 = fmul float %26, 5.000000e-01
  store float %27, ptr %8, align 4, !tbaa !31
  %28 = load float, ptr %8, align 4, !tbaa !31
  call void @llvm.lifetime.end.p0(i64 4, ptr %8) #3
  call void @llvm.lifetime.end.p0(i64 4, ptr %5) #3
  call void @llvm.lifetime.end.p0(i64 4, ptr %4) #3
  call void @llvm.lifetime.end.p0(i64 4, ptr %3) #3
  ret float %28
}

; Function Attrs: inlinehint mustprogress uwtable
define linkonce_odr hidden noundef float @_ZN19OpenColorIO_v2_5dev13CalcSatWeightEffff(float noundef %0, float noundef %1, float noundef %2, float noundef %3) #8 comdat {
  %5 = alloca float, align 4
  %6 = alloca float, align 4
  %7 = alloca float, align 4
  %8 = alloca float, align 4
  %9 = alloca float, align 4
  %10 = alloca float, align 4
  %11 = alloca float, align 4
  %12 = alloca float, align 4
  %13 = alloca float, align 4
  store float %0, ptr %5, align 4, !tbaa !31
  store float %1, ptr %6, align 4, !tbaa !31
  store float %2, ptr %7, align 4, !tbaa !31
  store float %3, ptr %8, align 4, !tbaa !31
  call void @llvm.lifetime.start.p0(i64 4, ptr %9) #3
  %14 = call noundef nonnull align 4 dereferenceable(4) ptr @_ZSt3minIfERKT_S2_S2_(ptr noundef nonnull align 4 dereferenceable(4) %6, ptr noundef nonnull align 4 dereferenceable(4) %7)
  %15 = call noundef nonnull align 4 dereferenceable(4) ptr @_ZSt3minIfERKT_S2_S2_(ptr noundef nonnull align 4 dereferenceable(4) %5, ptr noundef nonnull align 4 dereferenceable(4) %14)
  %16 = load float, ptr %15, align 4, !tbaa !31
  store float %16, ptr %9, align 4, !tbaa !31
  call void @llvm.lifetime.start.p0(i64 4, ptr %10) #3
  %17 = call noundef nonnull align 4 dereferenceable(4) ptr @_ZSt3maxIfERKT_S2_S2_(ptr noundef nonnull align 4 dereferenceable(4) %6, ptr noundef nonnull align 4 dereferenceable(4) %7)
  %18 = call noundef nonnull align 4 dereferenceable(4) ptr @_ZSt3maxIfERKT_S2_S2_(ptr noundef nonnull align 4 dereferenceable(4) %5, ptr noundef nonnull align 4 dereferenceable(4) %17)
  %19 = load float, ptr %18, align 4, !tbaa !31
  store float %19, ptr %10, align 4, !tbaa !31
  call void @llvm.lifetime.start.p0(i64 4, ptr %11) #3
  call void @llvm.lifetime.start.p0(i64 4, ptr %12) #3
  store float 0x3DDB7CDFE0000000, ptr %12, align 4, !tbaa !31
  %20 = call noundef nonnull align 4 dereferenceable(4) ptr @_ZSt3maxIfERKT_S2_S2_(ptr noundef nonnull align 4 dereferenceable(4) %12, ptr noundef nonnull align 4 dereferenceable(4) %10)
  %21 = load float, ptr %20, align 4, !tbaa !31
  call void @llvm.lifetime.start.p0(i64 4, ptr %13) #3
  store float 0x3DDB7CDFE0000000, ptr %13, align 4, !tbaa !31
  %22 = call noundef nonnull align 4 dereferenceable(4) ptr @_ZSt3maxIfERKT_S2_S2_(ptr noundef nonnull align 4 dereferenceable(4) %13, ptr noundef nonnull align 4 dereferenceable(4) %9)
  %23 = load float, ptr %22, align 4, !tbaa !31
  %24 = fsub float %21, %23
  %25 = call noundef nonnull align 4 dereferenceable(4) ptr @_ZSt3maxIfERKT_S2_S2_(ptr noundef nonnull align 4 dereferenceable(4) %8, ptr noundef nonnull align 4 dereferenceable(4) %10)
  %26 = load float, ptr %25, align 4, !tbaa !31
  %27 = fdiv float %24, %26
  call void @llvm.lifetime.end.p0(i64 4, ptr %13) #3
  call void @llvm.lifetime.end.p0(i64 4, ptr %12) #3
  store float %27, ptr %11, align 4, !tbaa !31
  %28 = load float, ptr %11, align 4, !tbaa !31
  call void @llvm.lifetime.end.p0(i64 4, ptr %11) #3
  call void @llvm.lifetime.end.p0(i64 4, ptr %10) #3
  call void @llvm.lifetime.end.p0(i64 4, ptr %9) #3
  ret float %28
}

; Function Attrs: inlinehint mustprogress nounwind uwtable
define linkonce_odr hidden noundef float @_ZN19OpenColorIO_v2_5dev7rgbToYCEfff(float noundef %0, float noundef %1, float noundef %2) #10 comdat {
  %4 = alloca float, align 4
  %5 = alloca float, align 4
  %6 = alloca float, align 4
  %7 = alloca float, align 4
  %8 = alloca float, align 4
  %9 = alloca float, align 4
  store float %0, ptr %4, align 4, !tbaa !31
  store float %1, ptr %5, align 4, !tbaa !31
  store float %2, ptr %6, align 4, !tbaa !31
  call void @llvm.lifetime.start.p0(i64 4, ptr %7) #3
  store float 1.750000e+00, ptr %7, align 4, !tbaa !31
  call void @llvm.lifetime.start.p0(i64 4, ptr %8) #3
  %10 = load float, ptr %6, align 4, !tbaa !31
  %11 = load float, ptr %6, align 4, !tbaa !31
  %12 = load float, ptr %5, align 4, !tbaa !31
  %13 = fsub float %11, %12
  %14 = load float, ptr %5, align 4, !tbaa !31
  %15 = load float, ptr %5, align 4, !tbaa !31
  %16 = load float, ptr %4, align 4, !tbaa !31
  %17 = fsub float %15, %16
  %18 = fmul float %14, %17
  %19 = call float @llvm.fmuladd.f32(float %10, float %13, float %18)
  %20 = load float, ptr %4, align 4, !tbaa !31
  %21 = load float, ptr %4, align 4, !tbaa !31
  %22 = load float, ptr %6, align 4, !tbaa !31
  %23 = fsub float %21, %22
  %24 = call float @llvm.fmuladd.f32(float %20, float %23, float %19)
  %25 = call noundef float @_ZSt4sqrtf(float noundef %24)
  store float %25, ptr %8, align 4, !tbaa !31
  call void @llvm.lifetime.start.p0(i64 4, ptr %9) #3
  %26 = load float, ptr %6, align 4, !tbaa !31
  %27 = load float, ptr %5, align 4, !tbaa !31
  %28 = fadd float %26, %27
  %29 = load float, ptr %4, align 4, !tbaa !31
  %30 = fadd float %28, %29
  %31 = load float, ptr %8, align 4, !tbaa !31
  %32 = call float @llvm.fmuladd.f32(float 1.750000e+00, float %31, float %30)
  %33 = fdiv float %32, 3.000000e+00
  store float %33, ptr %9, align 4, !tbaa !31
  %34 = load float, ptr %9, align 4, !tbaa !31
  call void @llvm.lifetime.end.p0(i64 4, ptr %9) #3
  call void @llvm.lifetime.end.p0(i64 4, ptr %8) #3
  call void @llvm.lifetime.end.p0(i64 4, ptr %7) #3
  ret float %34
}

; Function Attrs: mustprogress uwtable
define hidden void @_ZNK19OpenColorIO_v2_5dev24Renderer_ACES_Glow03_Fwd5applyEPKvPvl(ptr noundef nonnull align 8 dereferenceable(16) %0, ptr noundef %1, ptr noundef %2, i64 noundef %3) unnamed_addr #6 align 2 {
  %5 = alloca ptr, align 8
  %6 = alloca ptr, align 8
  %7 = alloca ptr, align 8
  %8 = alloca i64, align 8
  %9 = alloca ptr, align 8
  %10 = alloca ptr, align 8
  %11 = alloca i64, align 8
  %12 = alloca float, align 4
  %13 = alloca float, align 4
  %14 = alloca float, align 4
  %15 = alloca float, align 4
  %16 = alloca float, align 4
  %17 = alloca float, align 4
  %18 = alloca float, align 4
  %19 = alloca float, align 4
  %20 = alloca float, align 4
  %21 = alloca float, align 4
  store ptr %0, ptr %5, align 8, !tbaa !49
  store ptr %1, ptr %6, align 8, !tbaa !26
  store ptr %2, ptr %7, align 8, !tbaa !26
  store i64 %3, ptr %8, align 8, !tbaa !27
  %22 = load ptr, ptr %5, align 8
  call void @llvm.lifetime.start.p0(i64 8, ptr %9) #3
  %23 = load ptr, ptr %6, align 8, !tbaa !26
  store ptr %23, ptr %9, align 8, !tbaa !29
  call void @llvm.lifetime.start.p0(i64 8, ptr %10) #3
  %24 = load ptr, ptr %7, align 8, !tbaa !26
  store ptr %24, ptr %10, align 8, !tbaa !29
  call void @llvm.lifetime.start.p0(i64 8, ptr %11) #3
  store i64 0, ptr %11, align 8, !tbaa !27
  br label %25

25:                                               ; preds = %104, %4
  %26 = load i64, ptr %11, align 8, !tbaa !27
  %27 = load i64, ptr %8, align 8, !tbaa !27
  %28 = icmp slt i64 %26, %27
  br i1 %28, label %30, label %29

29:                                               ; preds = %25
  call void @llvm.lifetime.end.p0(i64 8, ptr %11) #3
  br label %107

30:                                               ; preds = %25
  call void @llvm.lifetime.start.p0(i64 4, ptr %12) #3
  %31 = load ptr, ptr %9, align 8, !tbaa !29
  %32 = getelementptr inbounds float, ptr %31, i64 0
  %33 = load float, ptr %32, align 4, !tbaa !31
  store float %33, ptr %12, align 4, !tbaa !31
  call void @llvm.lifetime.start.p0(i64 4, ptr %13) #3
  %34 = load ptr, ptr %9, align 8, !tbaa !29
  %35 = getelementptr inbounds float, ptr %34, i64 1
  %36 = load float, ptr %35, align 4, !tbaa !31
  store float %36, ptr %13, align 4, !tbaa !31
  call void @llvm.lifetime.start.p0(i64 4, ptr %14) #3
  %37 = load ptr, ptr %9, align 8, !tbaa !29
  %38 = getelementptr inbounds float, ptr %37, i64 2
  %39 = load float, ptr %38, align 4, !tbaa !31
  store float %39, ptr %14, align 4, !tbaa !31
  call void @llvm.lifetime.start.p0(i64 4, ptr %15) #3
  %40 = load float, ptr %12, align 4, !tbaa !31
  %41 = load float, ptr %13, align 4, !tbaa !31
  %42 = load float, ptr %14, align 4, !tbaa !31
  %43 = call noundef float @_ZN19OpenColorIO_v2_5dev7rgbToYCEfff(float noundef %40, float noundef %41, float noundef %42)
  store float %43, ptr %15, align 4, !tbaa !31
  call void @llvm.lifetime.start.p0(i64 4, ptr %16) #3
  %44 = load float, ptr %12, align 4, !tbaa !31
  %45 = load float, ptr %13, align 4, !tbaa !31
  %46 = load float, ptr %14, align 4, !tbaa !31
  %47 = call noundef float @_ZN19OpenColorIO_v2_5dev13CalcSatWeightEffff(float noundef %44, float noundef %45, float noundef %46, float noundef 0x3F847AE140000000)
  store float %47, ptr %16, align 4, !tbaa !31
  call void @llvm.lifetime.start.p0(i64 4, ptr %17) #3
  %48 = load float, ptr %16, align 4, !tbaa !31
  %49 = call noundef float @_ZN19OpenColorIO_v2_5dev13SigmoidShaperEf(float noundef %48)
  store float %49, ptr %17, align 4, !tbaa !31
  call void @llvm.lifetime.start.p0(i64 4, ptr %18) #3
  %50 = getelementptr inbounds nuw %"class.OpenColorIO_v2_5dev::Renderer_ACES_Glow03_Fwd", ptr %22, i32 0, i32 1
  %51 = load float, ptr %50, align 8, !tbaa !51
  %52 = load float, ptr %17, align 4, !tbaa !31
  %53 = fmul float %51, %52
  store float %53, ptr %18, align 4, !tbaa !31
  call void @llvm.lifetime.start.p0(i64 4, ptr %19) #3
  %54 = getelementptr inbounds nuw %"class.OpenColorIO_v2_5dev::Renderer_ACES_Glow03_Fwd", ptr %22, i32 0, i32 2
  %55 = load float, ptr %54, align 4, !tbaa !53
  store float %55, ptr %19, align 4, !tbaa !31
  call void @llvm.lifetime.start.p0(i64 4, ptr %20) #3
  %56 = load float, ptr %15, align 4, !tbaa !31
  %57 = load float, ptr %19, align 4, !tbaa !31
  %58 = fmul float %57, 2.000000e+00
  %59 = fcmp oge float %56, %58
  br i1 %59, label %60, label %61

60:                                               ; preds = %30
  store float 0.000000e+00, ptr %20, align 4, !tbaa !31
  br label %77

61:                                               ; preds = %30
  %62 = load float, ptr %15, align 4, !tbaa !31
  %63 = load float, ptr %19, align 4, !tbaa !31
  %64 = fmul float %63, 2.000000e+00
  %65 = fdiv float %64, 3.000000e+00
  %66 = fcmp ole float %62, %65
  br i1 %66, label %67, label %69

67:                                               ; preds = %61
  %68 = load float, ptr %18, align 4, !tbaa !31
  store float %68, ptr %20, align 4, !tbaa !31
  br label %76

69:                                               ; preds = %61
  %70 = load float, ptr %18, align 4, !tbaa !31
  %71 = load float, ptr %19, align 4, !tbaa !31
  %72 = load float, ptr %15, align 4, !tbaa !31
  %73 = fdiv float %71, %72
  %74 = fsub float %73, 5.000000e-01
  %75 = fmul float %70, %74
  store float %75, ptr %20, align 4, !tbaa !31
  br label %76

76:                                               ; preds = %69, %67
  br label %77

77:                                               ; preds = %76, %60
  call void @llvm.lifetime.start.p0(i64 4, ptr %21) #3
  %78 = load float, ptr %20, align 4, !tbaa !31
  %79 = fadd float 1.000000e+00, %78
  store float %79, ptr %21, align 4, !tbaa !31
  %80 = load float, ptr %12, align 4, !tbaa !31
  %81 = load float, ptr %21, align 4, !tbaa !31
  %82 = fmul float %80, %81
  %83 = load ptr, ptr %10, align 8, !tbaa !29
  %84 = getelementptr inbounds float, ptr %83, i64 0
  store float %82, ptr %84, align 4, !tbaa !31
  %85 = load float, ptr %13, align 4, !tbaa !31
  %86 = load float, ptr %21, align 4, !tbaa !31
  %87 = fmul float %85, %86
  %88 = load ptr, ptr %10, align 8, !tbaa !29
  %89 = getelementptr inbounds float, ptr %88, i64 1
  store float %87, ptr %89, align 4, !tbaa !31
  %90 = load float, ptr %14, align 4, !tbaa !31
  %91 = load float, ptr %21, align 4, !tbaa !31
  %92 = fmul float %90, %91
  %93 = load ptr, ptr %10, align 8, !tbaa !29
  %94 = getelementptr inbounds float, ptr %93, i64 2
  store float %92, ptr %94, align 4, !tbaa !31
  %95 = load ptr, ptr %9, align 8, !tbaa !29
  %96 = getelementptr inbounds float, ptr %95, i64 3
  %97 = load float, ptr %96, align 4, !tbaa !31
  %98 = load ptr, ptr %10, align 8, !tbaa !29
  %99 = getelementptr inbounds float, ptr %98, i64 3
  store float %97, ptr %99, align 4, !tbaa !31
  %100 = load ptr, ptr %9, align 8, !tbaa !29
  %101 = getelementptr inbounds float, ptr %100, i64 4
  store ptr %101, ptr %9, align 8, !tbaa !29
  %102 = load ptr, ptr %10, align 8, !tbaa !29
  %103 = getelementptr inbounds float, ptr %102, i64 4
  store ptr %103, ptr %10, align 8, !tbaa !29
  call void @llvm.lifetime.end.p0(i64 4, ptr %21) #3
  call void @llvm.lifetime.end.p0(i64 4, ptr %20) #3
  call void @llvm.lifetime.end.p0(i64 4, ptr %19) #3
  call void @llvm.lifetime.end.p0(i64 4, ptr %18) #3
  call void @llvm.lifetime.end.p0(i64 4, ptr %17) #3
  call void @llvm.lifetime.end.p0(i64 4, ptr %16) #3
  call void @llvm.lifetime.end.p0(i64 4, ptr %15) #3
  call void @llvm.lifetime.end.p0(i64 4, ptr %14) #3
  call void @llvm.lifetime.end.p0(i64 4, ptr %13) #3
  call void @llvm.lifetime.end.p0(i64 4, ptr %12) #3
  br label %104

104:                                              ; preds = %77
  %105 = load i64, ptr %11, align 8, !tbaa !27
  %106 = add nsw i64 %105, 1
  store i64 %106, ptr %11, align 8, !tbaa !27
  br label %25, !llvm.loop !54

107:                                              ; preds = %29
  call void @llvm.lifetime.end.p0(i64 8, ptr %10) #3
  call void @llvm.lifetime.end.p0(i64 8, ptr %9) #3
  ret void
}