; Function Attrs: mustprogress nofree nounwind memory(write, argmem: readwrite) uwtable
define hidden void @_ZNK19OpenColorIO_v2_5dev24Renderer_ACES_Glow03_Fwd5applyEPKvPvl(ptr noundef nonnull readonly align 8 captures(none) dereferenceable(16) %0, ptr noundef readonly captures(none) %1, ptr noundef writeonly captures(none) %2, i64 noundef %3) unnamed_addr #5 align 2 {
  %5 = icmp sgt i64 %3, 0
  br i1 %5, label %.lr.ph, label %._crit_edge

.lr.ph:                                           ; preds = %4
  %6 = getelementptr inbounds nuw i8, ptr %0, i64 8
  %7 = getelementptr inbounds nuw i8, ptr %0, i64 12
  br label %8

._crit_edge:                                      ; preds = %58, %4
  ret void

8:                                                ; preds = %.lr.ph, %58
  %.046 = phi ptr [ %1, %.lr.ph ], [ %68, %58 ]
  %.03945 = phi ptr [ %2, %.lr.ph ], [ %69, %58 ]
  %.04044 = phi i64 [ 0, %.lr.ph ], [ %70, %58 ]
  %9 = load float, ptr %.046, align 4, !tbaa !13
  %10 = getelementptr inbounds nuw i8, ptr %.046, i64 4
  %11 = load float, ptr %10, align 4, !tbaa !13
  %12 = getelementptr inbounds nuw i8, ptr %.046, i64 8
  %13 = load float, ptr %12, align 4, !tbaa !13
  %14 = fsub float %13, %11
  %15 = fsub float %11, %9
  %16 = fmul float %11, %15
  %17 = tail call float @llvm.fmuladd.f32(float %13, float %14, float %16)
  %18 = fsub float %9, %13
  %19 = tail call float @llvm.fmuladd.f32(float %9, float %18, float %17)
  %20 = tail call noundef float @sqrtf(float noundef %19) #28, !tbaa !14
  %21 = fadd float %11, %13
  %22 = fadd float %9, %21
  %23 = tail call float @llvm.fmuladd.f32(float %20, float 1.750000e+00, float %22)
  %24 = fdiv float %23, 3.000000e+00
  %25 = fcmp olt float %13, %11
  %26 = select i1 %25, float %13, float %11
  %27 = fcmp olt float %26, %9
  %.sroa.speculated26.i = select i1 %27, float %26, float %9
  %28 = fcmp olt float %11, %13
  %29 = select i1 %28, float %13, float %11
  %30 = fcmp olt float %9, %29
  %.sroa.speculated23.i = select i1 %30, float %29, float %9
  %31 = fcmp ogt float %.sroa.speculated23.i, 0x3DDB7CDFE0000000
  %.sroa.speculated8.i = select i1 %31, float %.sroa.speculated23.i, float 0x3DDB7CDFE0000000
  %32 = fcmp ogt float %.sroa.speculated26.i, 0x3DDB7CDFE0000000
  %.sroa.speculated.i = select i1 %32, float %.sroa.speculated26.i, float 0x3DDB7CDFE0000000
  %33 = fsub float %.sroa.speculated8.i, %.sroa.speculated.i
  %34 = fcmp ogt float %.sroa.speculated23.i, 0x3F847AE140000000
  %.sroa.speculated13.i = select i1 %34, float %.sroa.speculated23.i, float 0x3F847AE140000000
  %35 = fdiv float %33, %.sroa.speculated13.i
  %36 = fadd float %35, 0xBFD99999A0000000
  %37 = fmul float %36, 5.000000e+00
  %38 = tail call float @llvm.copysign.f32(float 1.000000e+00, float %37)
  %39 = fmul float %38, -5.000000e-01
  %40 = tail call float @llvm.fmuladd.f32(float %39, float %37, float 1.000000e+00)
  %41 = fcmp ogt float %40, 0.000000e+00
  %.sroa.speculated.i43 = select i1 %41, float %40, float 0.000000e+00
  %42 = fneg float %.sroa.speculated.i43
  %43 = tail call float @llvm.fmuladd.f32(float %42, float %.sroa.speculated.i43, float 1.000000e+00)
  %44 = tail call float @llvm.fmuladd.f32(float %38, float %43, float 1.000000e+00)
  %45 = fmul float %44, 5.000000e-01
  %46 = load float, ptr %6, align 8, !tbaa !25
  %47 = fmul float %46, %45
  %48 = load float, ptr %7, align 4, !tbaa !27
  %49 = fmul float %48, 2.000000e+00
  %50 = fcmp ult float %24, %49
  br i1 %50, label %51, label %58

51:                                               ; preds = %8
  %52 = fdiv float %49, 3.000000e+00
  %53 = fcmp ugt float %24, %52
  br i1 %53, label %54, label %58

54:                                               ; preds = %51
  %55 = fdiv float %48, %24
  %56 = fadd float %55, -5.000000e-01
  %57 = fmul float %56, %47
  br label %58

58:                                               ; preds = %51, %8, %54
  %.038 = phi float [ %57, %54 ], [ 0.000000e+00, %8 ], [ %47, %51 ]
  %59 = fadd float %.038, 1.000000e+00
  %60 = fmul float %9, %59
  store float %60, ptr %.03945, align 4, !tbaa !13
  %61 = fmul float %11, %59
  %62 = getelementptr inbounds nuw i8, ptr %.03945, i64 4
  store float %61, ptr %62, align 4, !tbaa !13
  %63 = fmul float %13, %59
  %64 = getelementptr inbounds nuw i8, ptr %.03945, i64 8
  store float %63, ptr %64, align 4, !tbaa !13
  %65 = getelementptr inbounds nuw i8, ptr %.046, i64 12
  %66 = load float, ptr %65, align 4, !tbaa !13
  %67 = getelementptr inbounds nuw i8, ptr %.03945, i64 12
  store float %66, ptr %67, align 4, !tbaa !13
  %68 = getelementptr inbounds nuw i8, ptr %.046, i64 16
  %69 = getelementptr inbounds nuw i8, ptr %.03945, i64 16
  %70 = add nuw nsw i64 %.04044, 1
  %exitcond.not = icmp eq i64 %70, %3
  br i1 %exitcond.not, label %._crit_edge, label %8, !llvm.loop !28
}